MPLINK 4.43, Linker
Linker Map File - Created Sat Aug 11 20:08:36 2012

                                 Section Info
                  Section       Type    Address   Location Size(Bytes)
                ---------  ---------  ---------  ---------  ---------
                   .org_0       code   0x000000    program   0x000000
                   .org_1       code   0x000000    program   0x000004
                   .org_2       code   0x003efd    program   0x000006
                   .org_3       code   0x003f00    program   0x000160
.config_8007_DS30LOADER.O       code   0x008007    program   0x000002
.config_8008_DS30LOADER.O       code   0x008008    program   0x000002



                              Program Memory Usage 
                               Start         End      
                           ---------   ---------      
                            0x000000    0x000001      
                            0x003efd    0x003faf      
                            0x008007    0x008008      
            183 out of 16647 program addresses used, program memory utilization is 1%



                              Symbols - Sorted by Name
                     Name    Address   Location    Storage File                     
                ---------  ---------  ---------  --------- ---------                
                 CommExit   0x003f92    program     static Z:\TEMP\FIRMWARE PIC12F PIC16F\DS30LOADER.X\..\SRC\uart.inc
                 CommInit   0x003f88    program     static Z:\TEMP\FIRMWARE PIC12F PIC16F\DS30LOADER.X\..\SRC\uart.inc
                     Main   0x003f11    program     static Z:\temp\firmware PIC12F PIC16F\ds30Loader.X\..\src\ds30loader.asm
                   RcvIni   0x003f98    program     static Z:\TEMP\FIRMWARE PIC12F PIC16F\DS30LOADER.X\..\SRC\uart.inc
                  Receive   0x003f97    program     static Z:\TEMP\FIRMWARE PIC12F PIC16F\DS30LOADER.X\..\SRC\uart.inc
                     Send   0x003faa    program     static Z:\TEMP\FIRMWARE PIC12F PIC16F\DS30LOADER.X\..\SRC\uart.inc
                    Write   0x003f7b    program     static Z:\temp\firmware PIC12F PIC16F\ds30Loader.X\..\src\ds30loader.asm
                  blstart   0x003f00    program     static Z:\temp\firmware PIC12F PIC16F\ds30Loader.X\..\src\ds30loader.asm
                  crcfail   0x003f78    program     static Z:\temp\firmware PIC12F PIC16F\ds30Loader.X\..\src\ds30loader.asm
                   cwrrow   0x003f31    program     static Z:\temp\firmware PIC12F PIC16F\ds30Loader.X\..\src\ds30loader.asm
                   eeprom   0x003f67    program     static Z:\temp\firmware PIC12F PIC16F\ds30Loader.X\..\src\ds30loader.asm
                   eewait   0x003f6c    program     static Z:\temp\firmware PIC12F PIC16F\ds30Loader.X\..\src\ds30loader.asm
                    erase   0x003f3b    program     static Z:\temp\firmware PIC12F PIC16F\ds30Loader.X\..\src\ds30loader.asm
                     exit   0x003f38    program     static Z:\temp\firmware PIC12F PIC16F\ds30Loader.X\..\src\ds30loader.asm
                  loadusr   0x003efd    program     static Z:\temp\firmware PIC12F PIC16F\ds30Loader.X\..\src\ds30loader.asm
                    mainl   0x003f14    program     static Z:\temp\firmware PIC12F PIC16F\ds30Loader.X\..\src\ds30loader.asm
                   notrcv   0x003fa3    program     static Z:\TEMP\FIRMWARE PIC12F PIC16F\DS30LOADER.X\..\SRC\uart.inc
                   rcvoct   0x003f23    program     static Z:\temp\firmware PIC12F PIC16F\ds30Loader.X\..\src\ds30loader.asm
                   rhello   0x003f03    program     static Z:\temp\firmware PIC12F PIC16F\ds30Loader.X\..\src\ds30loader.asm
                     rpt2   0x003f99    program     static Z:\TEMP\FIRMWARE PIC12F PIC16F\DS30LOADER.X\..\SRC\uart.inc
                     rpt3   0x003f9b    program     static Z:\TEMP\FIRMWARE PIC12F PIC16F\DS30LOADER.X\..\SRC\uart.inc
                     rptc   0x003f9c    program     static Z:\TEMP\FIRMWARE PIC12F PIC16F\DS30LOADER.X\..\SRC\uart.inc
                   sendid   0x003f0b    program     static Z:\temp\firmware PIC12F PIC16F\ds30Loader.X\..\src\ds30loader.asm
                   txwait   0x003fad    program     static Z:\TEMP\FIRMWARE PIC12F PIC16F\DS30LOADER.X\..\SRC\uart.inc
                  verfail   0x003f75    program     static Z:\temp\firmware PIC12F PIC16F\ds30Loader.X\..\src\ds30loader.asm
                  verword   0x003f52    program     static Z:\temp\firmware PIC12F PIC16F\ds30Loader.X\..\src\ds30loader.asm
                   waitpc   0x003f01    program     static Z:\temp\firmware PIC12F PIC16F\ds30Loader.X\..\src\ds30loader.asm
                  waitwre   0x003f84    program     static Z:\temp\firmware PIC12F PIC16F\ds30Loader.X\..\src\ds30loader.asm
                 writerow   0x003f42    program     static Z:\temp\firmware PIC12F PIC16F\ds30Loader.X\..\src\ds30loader.asm
                   wrword   0x003f45    program     static Z:\temp\firmware PIC12F PIC16F\ds30Loader.X\..\src\ds30loader.asm



                              Symbols - Sorted by Address
                     Name    Address   Location    Storage File                     
                ---------  ---------  ---------  --------- ---------                
                  loadusr   0x003efd    program     static Z:\temp\firmware PIC12F PIC16F\ds30Loader.X\..\src\ds30loader.asm
                  blstart   0x003f00    program     static Z:\temp\firmware PIC12F PIC16F\ds30Loader.X\..\src\ds30loader.asm
                   waitpc   0x003f01    program     static Z:\temp\firmware PIC12F PIC16F\ds30Loader.X\..\src\ds30loader.asm
                   rhello   0x003f03    program     static Z:\temp\firmware PIC12F PIC16F\ds30Loader.X\..\src\ds30loader.asm
                   sendid   0x003f0b    program     static Z:\temp\firmware PIC12F PIC16F\ds30Loader.X\..\src\ds30loader.asm
                     Main   0x003f11    program     static Z:\temp\firmware PIC12F PIC16F\ds30Loader.X\..\src\ds30loader.asm
                    mainl   0x003f14    program     static Z:\temp\firmware PIC12F PIC16F\ds30Loader.X\..\src\ds30loader.asm
                   rcvoct   0x003f23    program     static Z:\temp\firmware PIC12F PIC16F\ds30Loader.X\..\src\ds30loader.asm
                   cwrrow   0x003f31    program     static Z:\temp\firmware PIC12F PIC16F\ds30Loader.X\..\src\ds30loader.asm
                     exit   0x003f38    program     static Z:\temp\firmware PIC12F PIC16F\ds30Loader.X\..\src\ds30loader.asm
                    erase   0x003f3b    program     static Z:\temp\firmware PIC12F PIC16F\ds30Loader.X\..\src\ds30loader.asm
                 writerow   0x003f42    program     static Z:\temp\firmware PIC12F PIC16F\ds30Loader.X\..\src\ds30loader.asm
                   wrword   0x003f45    program     static Z:\temp\firmware PIC12F PIC16F\ds30Loader.X\..\src\ds30loader.asm
                  verword   0x003f52    program     static Z:\temp\firmware PIC12F PIC16F\ds30Loader.X\..\src\ds30loader.asm
                   eeprom   0x003f67    program     static Z:\temp\firmware PIC12F PIC16F\ds30Loader.X\..\src\ds30loader.asm
                   eewait   0x003f6c    program     static Z:\temp\firmware PIC12F PIC16F\ds30Loader.X\..\src\ds30loader.asm
                  verfail   0x003f75    program     static Z:\temp\firmware PIC12F PIC16F\ds30Loader.X\..\src\ds30loader.asm
                  crcfail   0x003f78    program     static Z:\temp\firmware PIC12F PIC16F\ds30Loader.X\..\src\ds30loader.asm
                    Write   0x003f7b    program     static Z:\temp\firmware PIC12F PIC16F\ds30Loader.X\..\src\ds30loader.asm
                  waitwre   0x003f84    program     static Z:\temp\firmware PIC12F PIC16F\ds30Loader.X\..\src\ds30loader.asm
                 CommInit   0x003f88    program     static Z:\TEMP\FIRMWARE PIC12F PIC16F\DS30LOADER.X\..\SRC\uart.inc
                 CommExit   0x003f92    program     static Z:\TEMP\FIRMWARE PIC12F PIC16F\DS30LOADER.X\..\SRC\uart.inc
                  Receive   0x003f97    program     static Z:\TEMP\FIRMWARE PIC12F PIC16F\DS30LOADER.X\..\SRC\uart.inc
                   RcvIni   0x003f98    program     static Z:\TEMP\FIRMWARE PIC12F PIC16F\DS30LOADER.X\..\SRC\uart.inc
                     rpt2   0x003f99    program     static Z:\TEMP\FIRMWARE PIC12F PIC16F\DS30LOADER.X\..\SRC\uart.inc
                     rpt3   0x003f9b    program     static Z:\TEMP\FIRMWARE PIC12F PIC16F\DS30LOADER.X\..\SRC\uart.inc
                     rptc   0x003f9c    program     static Z:\TEMP\FIRMWARE PIC12F PIC16F\DS30LOADER.X\..\SRC\uart.inc
                   notrcv   0x003fa3    program     static Z:\TEMP\FIRMWARE PIC12F PIC16F\DS30LOADER.X\..\SRC\uart.inc
                     Send   0x003faa    program     static Z:\TEMP\FIRMWARE PIC12F PIC16F\DS30LOADER.X\..\SRC\uart.inc
                   txwait   0x003fad    program     static Z:\TEMP\FIRMWARE PIC12F PIC16F\DS30LOADER.X\..\SRC\uart.inc


